target datalayout = "e-m:e-p270:32:32-p271:32:32-p272:64:64-i64:64-i128:128-f80:128-n8:16:32:64-S128"
target triple = "x86_64-pc-linux-gnu"

; Function Attrs: mustprogress nofree nosync nounwind willreturn memory(none) uwtable
define hidden noundef zeroext i1 @_ZN8rawspeed5Cpuid4SSE2Ev() local_unnamed_addr #0 align 2 {
  %1 = tail call { i32, i32, i32, i32 } asm "  xchgq  %rbx,${1:q}\0A  cpuid\0A  xchgq  %rbx,${1:q}", "={ax},=r,={cx},={dx},0,~{dirflag},~{fpsr},~{flags}"(i32 0) #1, !srcloc !6
  %2 = extractvalue { i32, i32, i32, i32 } %1, 0
  %3 = icmp eq i32 %2, 0
  br i1 %3, label %9, label %4

4:                                                ; preds = %0
  %5 = tail call { i32, i32, i32, i32 } asm "  xchgq  %rbx,${1:q}\0A  cpuid\0A  xchgq  %rbx,${1:q}", "={ax},=r,={cx},={dx},0,~{dirflag},~{fpsr},~{flags}"(i32 1) #1, !srcloc !7
  %6 = extractvalue { i32, i32, i32, i32 } %5, 3
  %7 = and i32 %6, 67108864
  %8 = icmp ne i32 %7, 0
  br label %9

9:                                                ; preds = %4, %0
  %10 = phi i1 [ %8, %4 ], [ false, %0 ]
  ret i1 %10
}


!llvm.linker.options = !{}
!llvm.module.flags = !{!0, !1, !2, !3, !4, !5}

!0 = !{i32 7, !"Dwarf Version", i32 5}
!1 = !{i32 2, !"Debug Info Version", i32 3}
!2 = !{i32 1, !"wchar_size", i32 4}
!3 = !{i32 8, !"PIC Level", i32 2}
!4 = !{i32 7, !"uwtable", i32 2}
!5 = !{i32 7, !"debug-info-assignment-tracking", i1 true}
!6 = !{i64 2147517816, i64 2147517852, i64 2147517876}
!7 = !{i64 2147518022, i64 2147518058, i64 2147518082}
